target datalayout = "e-m:e-p270:32:32-p271:32:32-p272:64:64-i64:64-i128:128-f80:128-n8:16:32:64-S128"
target triple = "x86_64-pc-linux-gnu"

%"class.cv::MatExpr" = type { ptr, i32, %"class.cv::Mat", %"class.cv::Mat", %"class.cv::Mat", double, double, %"class.cv::Scalar_" }
%"class.cv::Mat" = type { i32, i32, i32, i32, ptr, ptr, ptr, ptr, ptr, ptr, %"struct.cv::MatSize", %"struct.cv::MatStep" }
%"struct.cv::MatSize" = type { ptr }
%"struct.cv::MatStep" = type { ptr, [2 x i64] }
%"class.cv::Scalar_" = type { %"class.cv::Vec" }
%"class.cv::Vec" = type { %"class.cv::Matx" }
%"class.cv::Matx" = type { [4 x double] }
%"class.cv::utils::trace::details::Region" = type <{ ptr, i32, [4 x i8] }>

; Function Attrs: mustprogress nounwind uwtable
define linkonce_odr hidden void @_ZN2cv4MatxIdLi4ELi1EEC2Ev(ptr noundef nonnull align 8 dereferenceable(32) %0) unnamed_addr #4 comdat align 2 {
  %2 = alloca ptr, align 8
  %3 = alloca i32, align 4
  store ptr %0, ptr %2, align 8
  %4 = load ptr, ptr %2, align 8
  store i32 0, ptr %3, align 4
  br label %5

5:                                                ; preds = %13, %1
  %6 = load i32, ptr %3, align 4
  %7 = icmp slt i32 %6, 4
  br i1 %7, label %8, label %16

8:                                                ; preds = %5
  %9 = getelementptr inbounds %"class.cv::Matx", ptr %4, i32 0, i32 0
  %10 = load i32, ptr %3, align 4
  %11 = sext i32 %10 to i64
  %12 = getelementptr inbounds [4 x double], ptr %9, i64 0, i64 %11
  store double 0.000000e+00, ptr %12, align 8
  br label %13

13:                                               ; preds = %8
  %14 = load i32, ptr %3, align 4
  %15 = add nsw i32 %14, 1
  store i32 %15, ptr %3, align 4
  br label %5, !llvm.loop !7

16:                                               ; preds = %5
  ret void
}

; Function Attrs: mustprogress uwtable
define linkonce_odr hidden void @_ZN2cv3VecIdLi4EEC2Ev(ptr noundef nonnull align 8 dereferenceable(32) %0) unnamed_addr #6 comdat align 2 {
  %2 = alloca ptr, align 8
  store ptr %0, ptr %2, align 8
  %3 = load ptr, ptr %2, align 8
  call void @_ZN2cv4MatxIdLi4ELi1EEC2Ev(ptr noundef nonnull align 8 dereferenceable(32) %3)
  ret void
}

; Function Attrs: mustprogress uwtable
define linkonce_odr hidden void @_ZN2cv7Scalar_IdEC2Ev(ptr noundef nonnull align 8 dereferenceable(32) %0) unnamed_addr #6 comdat align 2 {
  %2 = alloca ptr, align 8
  store ptr %0, ptr %2, align 8
  %3 = load ptr, ptr %2, align 8
  call void @_ZN2cv3VecIdLi4EEC2Ev(ptr noundef nonnull align 8 dereferenceable(32) %3)
  %4 = getelementptr inbounds %"class.cv::Matx", ptr %3, i32 0, i32 0
  %5 = getelementptr inbounds [4 x double], ptr %4, i64 0, i64 3
  store double 0.000000e+00, ptr %5, align 8
  %6 = getelementptr inbounds %"class.cv::Matx", ptr %3, i32 0, i32 0
  %7 = getelementptr inbounds [4 x double], ptr %6, i64 0, i64 2
  store double 0.000000e+00, ptr %7, align 8
  %8 = getelementptr inbounds %"class.cv::Matx", ptr %3, i32 0, i32 0
  %9 = getelementptr inbounds [4 x double], ptr %8, i64 0, i64 1
  store double 0.000000e+00, ptr %9, align 8
  %10 = getelementptr inbounds %"class.cv::Matx", ptr %3, i32 0, i32 0
  %11 = getelementptr inbounds [4 x double], ptr %10, i64 0, i64 0
  store double 0.000000e+00, ptr %11, align 8
  ret void
}

; Function Attrs: mustprogress uwtable
define hidden void @_ZNK2cv9MatOp_Bin6divideEdRKNS_7MatExprERS1_(ptr noundef nonnull align 8 dereferenceable(8) %0, double noundef %1, ptr noundef nonnull align 8 dereferenceable(352) %2, ptr noundef nonnull align 8 dereferenceable(352) %3) unnamed_addr #6 align 2 personality ptr @__gxx_personality_v0 {
  %5 = alloca ptr, align 8
  %6 = alloca double, align 8
  %7 = alloca ptr, align 8
  %8 = alloca ptr, align 8
  %9 = alloca %"class.cv::utils::trace::details::Region", align 8
  %10 = alloca %"class.cv::Mat", align 8
  %11 = alloca %"class.cv::Scalar_", align 8
  %12 = alloca ptr, align 8
  %13 = alloca i32, align 4
  store ptr %0, ptr %5, align 8
  store double %1, ptr %6, align 8
  store ptr %2, ptr %7, align 8
  store ptr %3, ptr %8, align 8
  %14 = load ptr, ptr %5, align 8
  call void @_ZN2cv5utils5trace7details6RegionC1ERKNS3_21LocationStaticStorageE(ptr noundef nonnull align 8 dereferenceable(12) %9, ptr noundef nonnull align 8 dereferenceable(32) @_ZZNK2cv9MatOp_Bin6divideEdRKNS_7MatExprERS1_E26__cv_trace_location_fn1480)
  %15 = load ptr, ptr %7, align 8
  %16 = getelementptr inbounds %"class.cv::MatExpr", ptr %15, i32 0, i32 1
  %17 = load i32, ptr %16, align 8
  %18 = icmp eq i32 %17, 47
  br i1 %18, label %19, label %45

19:                                               ; preds = %4
  %20 = load ptr, ptr %7, align 8
  %21 = getelementptr inbounds %"class.cv::MatExpr", ptr %20, i32 0, i32 3
  %22 = getelementptr inbounds %"class.cv::Mat", ptr %21, i32 0, i32 4
  %23 = load ptr, ptr %22, align 8
  %24 = icmp ne ptr %23, null
  br i1 %24, label %25, label %30

25:                                               ; preds = %19
  %26 = load ptr, ptr %7, align 8
  %27 = getelementptr inbounds %"class.cv::MatExpr", ptr %26, i32 0, i32 6
  %28 = load double, ptr %27, align 8
  %29 = fcmp oeq double %28, 0.000000e+00
  br i1 %29, label %30, label %45

30:                                               ; preds = %25, %19
  %31 = load ptr, ptr %8, align 8
  %32 = load ptr, ptr %7, align 8
  %33 = getelementptr inbounds %"class.cv::MatExpr", ptr %32, i32 0, i32 2
  call void @_ZN2cv3MatC1Ev(ptr noundef nonnull align 8 dereferenceable(96) %10) #3
  %34 = load double, ptr %6, align 8
  %35 = load ptr, ptr %7, align 8
  %36 = getelementptr inbounds %"class.cv::MatExpr", ptr %35, i32 0, i32 5
  %37 = load double, ptr %36, align 8
  %38 = fdiv double %34, %37
  invoke void @_ZN2cv7Scalar_IdEC2Ev(ptr noundef nonnull align 8 dereferenceable(32) %11)
          to label %39 unwind label %41

39:                                               ; preds = %30
  invoke void @_ZN2cv11MatOp_AddEx8makeExprERNS_7MatExprERKNS_3MatES5_ddRKNS_7Scalar_IdEE(ptr noundef nonnull align 8 dereferenceable(352) %31, ptr noundef nonnull align 8 dereferenceable(96) %33, ptr noundef nonnull align 8 dereferenceable(96) %10, double noundef %38, double noundef 0.000000e+00, ptr noundef nonnull align 8 dereferenceable(32) %11)
          to label %40 unwind label %41

40:                                               ; preds = %39
  call void @_ZN2cv3MatD1Ev(ptr noundef nonnull align 8 dereferenceable(96) %10) #3
  br label %54

41:                                               ; preds = %39, %30
  %42 = landingpad { ptr, i32 }
          cleanup
  %43 = extractvalue { ptr, i32 } %42, 0
  store ptr %43, ptr %12, align 8
  %44 = extractvalue { ptr, i32 } %42, 1
  store i32 %44, ptr %13, align 4
  call void @_ZN2cv3MatD1Ev(ptr noundef nonnull align 8 dereferenceable(96) %10) #3
  br label %55

45:                                               ; preds = %25, %4
  %46 = load double, ptr %6, align 8
  %47 = load ptr, ptr %7, align 8
  %48 = load ptr, ptr %8, align 8
  invoke void @_ZNK2cv5MatOp6divideEdRKNS_7MatExprERS1_(ptr noundef nonnull align 8 dereferenceable(8) %14, double noundef %46, ptr noundef nonnull align 8 dereferenceable(352) %47, ptr noundef nonnull align 8 dereferenceable(352) %48)
          to label %49 unwind label %50

49:                                               ; preds = %45
  br label %54

50:                                               ; preds = %45
  %51 = landingpad { ptr, i32 }
          cleanup
  %52 = extractvalue { ptr, i32 } %51, 0
  store ptr %52, ptr %12, align 8
  %53 = extractvalue { ptr, i32 } %51, 1
  store i32 %53, ptr %13, align 4
  br label %55

54:                                               ; preds = %49, %40
  call void @_ZN2cv5utils5trace7details6RegionD2Ev(ptr noundef nonnull align 8 dereferenceable(12) %9) #3
  ret void

55:                                               ; preds = %50, %41
  call void @_ZN2cv5utils5trace7details6RegionD2Ev(ptr noundef nonnull align 8 dereferenceable(12) %9) #3
  br label %56

56:                                               ; preds = %55
  %57 = load ptr, ptr %12, align 8
  %58 = load i32, ptr %13, align 4
  %59 = insertvalue { ptr, i32 } poison, ptr %57, 0
  %60 = insertvalue { ptr, i32 } %59, i32 %58, 1
  resume { ptr, i32 } %60
}