; Function Attrs: mustprogress uwtable
define hidden void @_ZNK2cv9MatOp_Bin6divideEdRKNS_7MatExprERS1_(ptr nocapture nonnull readnone align 8 %0, double noundef %1, ptr noundef nonnull align 8 dereferenceable(352) %2, ptr noundef nonnull align 8 dereferenceable(352) %3) unnamed_addr #8 align 2 personality ptr @__gxx_personality_v0 {
  %5 = alloca %"class.cv::utils::trace::details::Region", align 8
  %6 = alloca %"class.cv::Mat", align 8
  %7 = alloca %"class.cv::Scalar_", align 8
  call void @_ZN2cv5utils5trace7details6RegionC1ERKNS3_21LocationStaticStorageE(ptr noundef nonnull align 8 dereferenceable(12) %5, ptr noundef nonnull align 8 dereferenceable(32) @_ZZNK2cv9MatOp_Bin6divideEdRKNS_7MatExprERS1_E26__cv_trace_location_fn1480)
  %8 = getelementptr inbounds i8, ptr %2, i64 8
  %9 = load i32, ptr %8, align 8
  %10 = icmp eq i32 %9, 47
  br i1 %10, label %11, label %25

11:                                               ; preds = %4
  %12 = getelementptr inbounds i8, ptr %2, i64 128
  %13 = load ptr, ptr %12, align 8
  %.not = icmp eq ptr %13, null
  %14 = getelementptr inbounds i8, ptr %2, i64 312
  %15 = load double, ptr %14, align 8
  %16 = fcmp oeq double %15, 0.000000e+00
  %or.cond = select i1 %.not, i1 true, i1 %16
  br i1 %or.cond, label %17, label %25

17:                                               ; preds = %11
  call void @_ZN2cv3MatC1Ev(ptr noundef nonnull align 8 dereferenceable(96) %6) #21
  %18 = getelementptr inbounds i8, ptr %2, i64 304
  %19 = load double, ptr %18, align 8
  call void @llvm.memset.p0.i64(ptr noundef nonnull align 8 dereferenceable(32) %7, i8 0, i64 32, i1 false)
  %20 = fdiv double %1, %19
  %21 = getelementptr inbounds i8, ptr %2, i64 16
  invoke void @_ZN2cv11MatOp_AddEx8makeExprERNS_7MatExprERKNS_3MatES5_ddRKNS_7Scalar_IdEE(ptr noundef nonnull align 8 dereferenceable(352) %3, ptr noundef nonnull align 8 dereferenceable(96) %21, ptr noundef nonnull align 8 dereferenceable(96) %6, double noundef %20, double noundef 0.000000e+00, ptr noundef nonnull align 8 dereferenceable(32) %7)
          to label %22 unwind label %23

22:                                               ; preds = %17
  call void @_ZN2cv3MatD1Ev(ptr noundef nonnull align 8 dereferenceable(96) %6) #21
  br label %28

23:                                               ; preds = %17
  %24 = landingpad { ptr, i32 }
          cleanup
  call void @_ZN2cv3MatD1Ev(ptr noundef nonnull align 8 dereferenceable(96) %6) #21
  br label %35

25:                                               ; preds = %11, %4
  invoke void @_ZNK2cv5MatOp6divideEdRKNS_7MatExprERS1_(ptr nonnull align 8 poison, double noundef %1, ptr noundef nonnull align 8 dereferenceable(352) %2, ptr noundef nonnull align 8 dereferenceable(352) %3)
          to label %28 unwind label %26

26:                                               ; preds = %25
  %27 = landingpad { ptr, i32 }
          cleanup
  br label %35

28:                                               ; preds = %25, %22
  %29 = getelementptr inbounds i8, ptr %5, i64 8
  %30 = load i32, ptr %29, align 8
  %.not.i = icmp eq i32 %30, 0
  br i1 %.not.i, label %_ZN2cv5utils5trace7details6RegionD2Ev.exit, label %31

31:                                               ; preds = %28
  invoke void @_ZN2cv5utils5trace7details6Region7destroyEv(ptr noundef nonnull align 8 dereferenceable(12) %5)
          to label %_ZN2cv5utils5trace7details6RegionD2Ev.exit unwind label %32

32:                                               ; preds = %31
  %33 = landingpad { ptr, i32 }
          catch ptr null
  %34 = extractvalue { ptr, i32 } %33, 0
  call void @__clang_call_terminate(ptr %34) #20
  unreachable

_ZN2cv5utils5trace7details6RegionD2Ev.exit:       ; preds = %28, %31
  ret void

35:                                               ; preds = %26, %23
  %.pn = phi { ptr, i32 } [ %24, %23 ], [ %27, %26 ]
  call void @_ZN2cv5utils5trace7details6RegionD2Ev(ptr noundef nonnull align 8 dereferenceable(12) %5) #21
  resume { ptr, i32 } %.pn
}